(dp0
Vengine
p1
Vpdflatex
p2
sVpackages
p3
c__builtin__
set
p4
((lp5
Vcolor
p6
aVurl
p7
aVcite
p8
atp9
Rp10
sVfiles_with_guttermarks
p11
g4
((lp12
V/Users/nhf/Projects/WebMeasurement/finalpaper/workshop_draft/./web_finalpaper.tex
p13
aS'web_finalpaper.tex'
p14
aV/Users/nhf/Projects/WebMeasurement/finalpaper/workshop_draft/web_finalpaper.tex
p15
atp16
Rp17
sVsynctex
p18
I01
s.